; ModuleID = '29/1381.c'
source_filename = "29/1381.c"
target datalayout = "e-m:e-p270:32:32-p271:32:32-p272:64:64-i64:64-f80:128-n8:16:32:64-S128"
target triple = "x86_64-pc-linux-gnu"

@.str = private unnamed_addr constant [3 x i8] c"%d\00", align 1
@.str.1 = private unnamed_addr constant [4 x i8] c"%lf\00", align 1
@.str.2 = private unnamed_addr constant [7 x i8] c"%.3lf\0A\00", align 1

; Function Attrs: noinline nounwind uwtable
define dso_local i32 @main() #0 {
  %1 = alloca i32, align 4
  %2 = alloca [100 x double], align 16
  %3 = alloca double, align 8
  %4 = alloca double, align 8
  %5 = alloca double, align 8
  %6 = alloca double, align 8
  %7 = alloca double, align 8
  %8 = alloca i32, align 4
  %9 = alloca i32, align 4
  store i32 0, i32* %1, align 4
  store double 0.000000e+00, double* %4, align 8
  %10 = call i32 (i8*, ...) @__isoc99_scanf(i8* getelementptr inbounds ([3 x i8], [3 x i8]* @.str, i64 0, i64 0), i32* %8)
  store i32 0, i32* %9, align 4
  br label %11

11:                                               ; preds = %20, %0
  %12 = load i32, i32* %9, align 4
  %13 = load i32, i32* %8, align 4
  %14 = icmp slt i32 %12, %13
  br i1 %14, label %15, label %23

15:                                               ; preds = %11
  %16 = load i32, i32* %9, align 4
  %17 = sext i32 %16 to i64
  %18 = getelementptr inbounds [100 x double], [100 x double]* %2, i64 0, i64 %17
  %19 = call i32 (i8*, ...) @__isoc99_scanf(i8* getelementptr inbounds ([4 x i8], [4 x i8]* @.str.1, i64 0, i64 0), double* %18)
  br label %20

20:                                               ; preds = %15
  %21 = load i32, i32* %9, align 4
  %22 = add nsw i32 %21, 1
  store i32 %22, i32* %9, align 4
  br label %11

23:                                               ; preds = %11
  store i32 0, i32* %9, align 4
  br label %24

24:                                               ; preds = %57, %23
  %25 = load i32, i32* %9, align 4
  %26 = load i32, i32* %8, align 4
  %27 = icmp slt i32 %25, %26
  br i1 %27, label %28, label %60

28:                                               ; preds = %24
  store double 1.000000e+00, double* %3, align 8
  br label %29

29:                                               ; preds = %51, %28
  %30 = load double, double* %3, align 8
  %31 = load i32, i32* %9, align 4
  %32 = sext i32 %31 to i64
  %33 = getelementptr inbounds [100 x double], [100 x double]* %2, i64 0, i64 %32
  %34 = load double, double* %33, align 8
  %35 = fcmp ole double %30, %34
  br i1 %35, label %36, label %54

36:                                               ; preds = %29
  %37 = load double, double* %3, align 8
  %38 = fcmp oeq double %37, 1.000000e+00
  br i1 %38, label %39, label %40

39:                                               ; preds = %36
  store double 2.000000e+00, double* %5, align 8
  store double 1.000000e+00, double* %6, align 8
  br label %40

40:                                               ; preds = %39, %36
  %41 = load double, double* %5, align 8
  %42 = load double, double* %6, align 8
  %43 = fdiv double %41, %42
  %44 = load double, double* %4, align 8
  %45 = fadd double %44, %43
  store double %45, double* %4, align 8
  %46 = load double, double* %6, align 8
  store double %46, double* %7, align 8
  %47 = load double, double* %5, align 8
  store double %47, double* %6, align 8
  %48 = load double, double* %5, align 8
  %49 = load double, double* %7, align 8
  %50 = fadd double %48, %49
  store double %50, double* %5, align 8
  br label %51

51:                                               ; preds = %40
  %52 = load double, double* %3, align 8
  %53 = fadd double %52, 1.000000e+00
  store double %53, double* %3, align 8
  br label %29

54:                                               ; preds = %29
  %55 = load double, double* %4, align 8
  %56 = call i32 (i8*, ...) @printf(i8* getelementptr inbounds ([7 x i8], [7 x i8]* @.str.2, i64 0, i64 0), double %55)
  store double 0.000000e+00, double* %4, align 8
  br label %57

57:                                               ; preds = %54
  %58 = load i32, i32* %9, align 4
  %59 = add nsw i32 %58, 1
  store i32 %59, i32* %9, align 4
  br label %24

60:                                               ; preds = %24
  ret i32 0
}

declare dso_local i32 @__isoc99_scanf(i8*, ...) #1

declare dso_local i32 @printf(i8*, ...) #1


!llvm.module.flags = !{!0}
!llvm.ident = !{!1}

!0 = !{i32 1, !"wchar_size", i32 4}
!1 = !{!"clang version 10.0.0-4ubuntu1 "}
