; ModuleID = 'source-C-CXX/28/1381.c'
source_filename = "source-C-CXX/28/1381.c"
target datalayout = "e-m:e-p270:32:32-p271:32:32-p272:64:64-i64:64-f80:128-n8:16:32:64-S128"
target triple = "x86_64-pc-linux-gnu"

@.str = private unnamed_addr constant [3 x i8] c"%d\00", align 1
@.str.1 = private unnamed_addr constant [4 x i8] c"%lf\00", align 1
@.str.2 = private unnamed_addr constant [7 x i8] c"%.3lf\0A\00", align 1

; Function Attrs: nofree nounwind sspstrong uwtable
define dso_local i32 @main() local_unnamed_addr #0 {
  %1 = alloca [100 x double], align 16
  %2 = alloca i32, align 4
  %3 = bitcast [100 x double]* %1 to i8*
  call void @llvm.lifetime.start.p0i8(i64 800, i8* nonnull %3) #3
  %4 = bitcast i32* %2 to i8*
  call void @llvm.lifetime.start.p0i8(i64 4, i8* nonnull %4) #3
  %5 = call i32 (i8*, ...) @__isoc99_scanf(i8* getelementptr inbounds ([3 x i8], [3 x i8]* @.str, i64 0, i64 0), i32* nonnull %2)
  %6 = load i32, i32* %2, align 4, !tbaa !5
  %7 = icmp sgt i32 %6, 0
  br i1 %7, label %10, label %47

8:                                                ; preds = %10
  %9 = icmp sgt i32 %15, 0
  br i1 %9, label %18, label %47

10:                                               ; preds = %0, %10
  %11 = phi i64 [ %14, %10 ], [ 0, %0 ]
  %12 = getelementptr inbounds [100 x double], [100 x double]* %1, i64 0, i64 %11
  %13 = call i32 (i8*, ...) @__isoc99_scanf(i8* getelementptr inbounds ([4 x i8], [4 x i8]* @.str.1, i64 0, i64 0), double* nonnull %12)
  %14 = add nuw nsw i64 %11, 1
  %15 = load i32, i32* %2, align 4, !tbaa !5
  %16 = sext i32 %15 to i64
  %17 = icmp slt i64 %14, %16
  br i1 %17, label %10, label %8, !llvm.loop !9

18:                                               ; preds = %8, %38
  %19 = phi i64 [ %43, %38 ], [ 0, %8 ]
  %20 = phi double [ %41, %38 ], [ undef, %8 ]
  %21 = phi double [ %40, %38 ], [ undef, %8 ]
  %22 = getelementptr inbounds [100 x double], [100 x double]* %1, i64 0, i64 %19
  %23 = load double, double* %22, align 8, !tbaa !11
  %24 = fcmp ult double %23, 1.000000e+00
  br i1 %24, label %38, label %25

25:                                               ; preds = %18, %25
  %26 = phi double [ %36, %25 ], [ 1.000000e+00, %18 ]
  %27 = phi double [ %31, %25 ], [ %20, %18 ]
  %28 = phi double [ %35, %25 ], [ %21, %18 ]
  %29 = phi double [ %34, %25 ], [ 0.000000e+00, %18 ]
  %30 = fcmp oeq double %26, 1.000000e+00
  %31 = select i1 %30, double 2.000000e+00, double %28
  %32 = select i1 %30, double 1.000000e+00, double %27
  %33 = fdiv double %31, %32
  %34 = fadd double %29, %33
  %35 = fadd double %31, %32
  %36 = fadd double %26, 1.000000e+00
  %37 = fcmp ugt double %36, %23
  br i1 %37, label %38, label %25, !llvm.loop !13

38:                                               ; preds = %25, %18
  %39 = phi double [ 0.000000e+00, %18 ], [ %34, %25 ]
  %40 = phi double [ %21, %18 ], [ %35, %25 ]
  %41 = phi double [ %20, %18 ], [ %31, %25 ]
  %42 = call i32 (i8*, ...) @printf(i8* nonnull dereferenceable(1) getelementptr inbounds ([7 x i8], [7 x i8]* @.str.2, i64 0, i64 0), double %39)
  %43 = add nuw nsw i64 %19, 1
  %44 = load i32, i32* %2, align 4, !tbaa !5
  %45 = sext i32 %44 to i64
  %46 = icmp slt i64 %43, %45
  br i1 %46, label %18, label %47, !llvm.loop !14

47:                                               ; preds = %38, %0, %8
  call void @llvm.lifetime.end.p0i8(i64 4, i8* nonnull %4) #3
  call void @llvm.lifetime.end.p0i8(i64 800, i8* nonnull %3) #3
  ret i32 0
}

; Function Attrs: argmemonly mustprogress nofree nosync nounwind willreturn
declare void @llvm.lifetime.start.p0i8(i64 immarg, i8* nocapture) #1

; Function Attrs: nofree nounwind
declare noundef i32 @__isoc99_scanf(i8* nocapture noundef readonly, ...) local_unnamed_addr #2

; Function Attrs: nofree nounwind
declare noundef i32 @printf(i8* nocapture noundef readonly, ...) local_unnamed_addr #2

; Function Attrs: argmemonly mustprogress nofree nosync nounwind willreturn
declare void @llvm.lifetime.end.p0i8(i64 immarg, i8* nocapture) #1


!llvm.module.flags = !{!0, !1, !2, !3}
!llvm.ident = !{!4}

!0 = !{i32 1, !"wchar_size", i32 4}
!1 = !{i32 7, !"PIC Level", i32 2}
!2 = !{i32 7, !"PIE Level", i32 2}
!3 = !{i32 7, !"uwtable", i32 1}
!4 = !{!"clang version 13.0.0"}
!5 = !{!6, !6, i64 0}
!6 = !{!"int", !7, i64 0}
!7 = !{!"omnipotent char", !8, i64 0}
!8 = !{!"Simple C/C++ TBAA"}
!9 = distinct !{!9, !10}
!10 = !{!"llvm.loop.mustprogress"}
!11 = !{!12, !12, i64 0}
!12 = !{!"double", !7, i64 0}
!13 = distinct !{!13, !10}
!14 = distinct !{!14, !10}
